Certificate:
    Data:
        Version: 3 (0x2)
        Serial Number:
            03:61:02:71:7f:42:e4:80:57:b9:16:58:2f:8b:7a:e9:14:45
    Signature Algorithm: sha256WithRSAEncryption
        Issuer: C=US, O=Let's Encrypt, CN=Let's Encrypt Authority X3
        Validity
            Not Before: May 27 03:01:13 2019 GMT
            Not After : Aug 25 03:01:13 2019 GMT
        Subject: CN=www.kino.kz
        Subject Public Key Info:
            Public Key Algorithm: rsaEncryption
                Public-Key: (2048 bit)
                Modulus:
                    00:c6:ff:94:e0:65:99:52:a9:d7:fd:17:45:d3:3b:
                    66:2e:5d:f9:87:9e:f8:9a:bb:f8:2c:bc:3c:60:ae:
                    d5:b5:48:d3:06:aa:80:64:42:64:d5:af:d6:77:9b:
                    c8:a6:37:34:8d:ad:87:2c:2f:7c:57:5c:6a:a8:9f:
                    6c:10:eb:b8:22:20:b1:b2:75:e9:e3:51:9a:19:42:
                    15:25:78:e0:6d:8a:eb:bc:29:74:f6:2a:19:71:3c:
                    6b:f9:f6:0b:58:a6:35:47:e8:9c:21:48:a2:81:26:
                    25:ea:52:17:13:c8:82:a8:44:94:89:63:6b:e0:30:
                    de:b0:98:31:e6:b3:82:c4:30:78:b6:3a:22:ff:0c:
                    f6:3d:0e:a2:06:aa:2f:d8:3e:48:68:a2:84:4d:73:
                    a9:ca:4d:d2:79:94:d0:b6:7d:27:06:13:d2:38:cf:
                    84:05:b8:4f:db:af:22:fe:fb:d4:b0:25:e5:e4:d1:
                    72:f6:14:71:a6:ce:56:fb:a8:09:92:e0:f8:22:5e:
                    78:e4:d1:4c:90:9d:7e:e4:35:ad:f7:32:8e:74:0b:
                    a8:5c:c9:3b:d8:93:30:78:0d:9c:3e:59:b2:8d:62:
                    af:f0:9d:af:ca:5f:25:a0:9d:b4:69:bd:5c:e5:98:
                    5e:da:67:0d:6d:9e:86:7b:66:6b:4d:64:c3:fe:f9:
                    b0:b5
                Exponent: 65537 (0x10001)
        X509v3 extensions:
            X509v3 Key Usage: critical
                Digital Signature, Key Encipherment
            X509v3 Extended Key Usage: 
                TLS Web Server Authentication, TLS Web Client Authentication
            X509v3 Basic Constraints: critical
                CA:FALSE
            X509v3 Subject Key Identifier: 
                92:9B:39:FE:D5:1F:B3:27:49:0A:C4:6D:04:D0:D0:2A:1D:18:FC:F4
            X509v3 Authority Key Identifier: 
                keyid:A8:4A:6A:63:04:7D:DD:BA:E6:D1:39:B7:A6:45:65:EF:F3:A8:EC:A1

            Authority Information Access: 
                OCSP - URI:http://ocsp.int-x3.letsencrypt.org
                CA Issuers - URI:http://cert.int-x3.letsencrypt.org/

            X509v3 Subject Alternative Name: 
                DNS:api.kino.kz, DNS:kino.kz, DNS:s.kino.kz, DNS:service.kino.kz, DNS:tv.kino.kz, DNS:ws.kino.kz, DNS:www.kino.kz
            X509v3 Certificate Policies: 
                Policy: 2.23.140.1.2.1
                Policy: 1.3.6.1.4.1.44947.1.1.1
                  CPS: http://cps.letsencrypt.org

            CT Precertificate SCTs: 
                Signed Certificate Timestamp:
                    Version   : v1(0)
                    Log ID    : E2:69:4B:AE:26:E8:E9:40:09:E8:86:1B:B6:3B:83:D4:
                                3E:E7:FE:74:88:FB:A4:8F:28:93:01:9D:DD:F1:DB:FE
                    Timestamp : May 27 04:01:14.804 2019 GMT
                    Extensions: none
                    Signature : ecdsa-with-SHA256
                                30:44:02:20:7B:1A:3F:C9:2F:AD:E2:83:B7:65:B2:27:
                                73:D6:3F:36:9F:34:7C:6D:B1:58:45:7E:AB:A4:FE:6B:
                                0F:26:43:DC:02:20:3B:94:6E:9A:CC:E4:94:9C:07:2C:
                                E6:EB:DF:68:C6:0A:CF:58:78:D2:50:02:90:38:9B:36:
                                93:CA:95:69:DE:B6
                Signed Certificate Timestamp:
                    Version   : v1(0)
                    Log ID    : 29:3C:51:96:54:C8:39:65:BA:AA:50:FC:58:07:D4:B7:
                                6F:BF:58:7A:29:72:DC:A4:C3:0C:F4:E5:45:47:F4:78
                    Timestamp : May 27 04:01:14.837 2019 GMT
                    Extensions: none
                    Signature : ecdsa-with-SHA256
                                30:46:02:21:00:F9:E9:8D:B7:43:81:51:8A:0C:39:98:
                                97:D8:B2:30:20:4B:AD:C8:BC:35:3D:F7:89:B9:3D:54:
                                BB:0E:87:67:7B:02:21:00:F0:4B:A6:61:3C:3B:9D:5E:
                                54:63:5E:52:A9:72:0F:E3:52:50:B7:25:CE:6C:AC:97:
                                66:E7:44:7B:42:A2:73:46
    Signature Algorithm: sha256WithRSAEncryption
         41:4a:e3:6e:31:c4:f1:8a:57:d6:f1:27:e4:a0:a3:a3:c5:61:
         fb:4a:1a:7a:64:1b:f2:61:40:17:d1:a0:08:c1:59:c7:7f:cc:
         96:34:04:b3:21:12:20:de:d4:63:f6:11:a4:b6:cc:dc:56:b2:
         25:27:94:99:0f:0c:84:ad:83:9c:f9:8c:2c:4a:cc:fa:d0:d1:
         d6:d7:2b:18:eb:f6:8a:bf:ca:04:bc:d8:ed:e0:1f:5a:98:4d:
         e6:5f:a2:66:22:7c:34:05:cd:9b:66:47:74:0e:74:b9:c9:27:
         bc:ae:50:39:4b:df:3d:fe:71:34:e2:c1:c3:02:ad:49:00:e4:
         81:6e:bd:95:07:c7:e7:d6:93:08:f6:65:2b:82:5c:bd:b0:30:
         d2:9b:e0:74:ea:a4:14:b1:59:01:4f:be:c1:fc:09:a3:42:e5:
         0f:9f:4d:bd:50:4e:88:c5:76:4f:68:74:b6:31:61:bc:32:1f:
         13:10:3c:9e:ee:5c:6e:32:ed:b9:a2:62:1c:37:4e:23:bf:08:
         9b:24:2e:eb:b8:11:e4:3c:6d:10:78:2b:ff:f9:09:73:a6:b0:
         c7:ea:33:32:95:be:94:fe:ff:ef:6d:0a:e6:35:97:4a:a1:0e:
         db:73:e2:f5:bd:83:5d:9a:45:bc:5e:af:59:3d:c4:5b:27:03:
         a3:6a:22:dc
-----BEGIN CERTIFICATE-----
MIIFmDCCBICgAwIBAgISA2ECcX9C5IBXuRZYL4t66RRFMA0GCSqGSIb3DQEBCwUA
MEoxCzAJBgNVBAYTAlVTMRYwFAYDVQQKEw1MZXQncyBFbmNyeXB0MSMwIQYDVQQD
ExpMZXQncyBFbmNyeXB0IEF1dGhvcml0eSBYMzAeFw0xOTA1MjcwMzAxMTNaFw0x
OTA4MjUwMzAxMTNaMBYxFDASBgNVBAMTC3d3dy5raW5vLmt6MIIBIjANBgkqhkiG
9w0BAQEFAAOCAQ8AMIIBCgKCAQEAxv+U4GWZUqnX/RdF0ztmLl35h574mrv4LLw8
YK7VtUjTBqqAZEJk1a/Wd5vIpjc0ja2HLC98V1xqqJ9sEOu4IiCxsnXp41GaGUIV
JXjgbYrrvCl09ioZcTxr+fYLWKY1R+icIUiigSYl6lIXE8iCqESUiWNr4DDesJgx
5rOCxDB4tjoi/wz2PQ6iBqov2D5IaKKETXOpyk3SeZTQtn0nBhPSOM+EBbhP268i
/vvUsCXl5NFy9hRxps5W+6gJkuD4Il545NFMkJ1+5DWt9zKOdAuoXMk72JMweA2c
PlmyjWKv8J2vyl8loJ20ab1c5Zhe2mcNbZ6Ge2ZrTWTD/vmwtQIDAQABo4ICqjCC
AqYwDgYDVR0PAQH/BAQDAgWgMB0GA1UdJQQWMBQGCCsGAQUFBwMBBggrBgEFBQcD
AjAMBgNVHRMBAf8EAjAAMB0GA1UdDgQWBBSSmzn+1R+zJ0kKxG0E0NAqHRj89DAf
BgNVHSMEGDAWgBSoSmpjBH3duubRObemRWXv86jsoTBvBggrBgEFBQcBAQRjMGEw
LgYIKwYBBQUHMAGGImh0dHA6Ly9vY3NwLmludC14My5sZXRzZW5jcnlwdC5vcmcw
LwYIKwYBBQUHMAKGI2h0dHA6Ly9jZXJ0LmludC14My5sZXRzZW5jcnlwdC5vcmcv
MGAGA1UdEQRZMFeCC2FwaS5raW5vLmt6ggdraW5vLmt6gglzLmtpbm8ua3qCD3Nl
cnZpY2Uua2luby5reoIKdHYua2luby5reoIKd3Mua2luby5reoILd3d3Lmtpbm8u
a3owTAYDVR0gBEUwQzAIBgZngQwBAgEwNwYLKwYBBAGC3xMBAQEwKDAmBggrBgEF
BQcCARYaaHR0cDovL2Nwcy5sZXRzZW5jcnlwdC5vcmcwggEEBgorBgEEAdZ5AgQC
BIH1BIHyAPAAdQDiaUuuJujpQAnohhu2O4PUPuf+dIj7pI8okwGd3fHb/gAAAWr3
cxI0AAAEAwBGMEQCIHsaP8kvreKDt2WyJ3PWPzafNHxtsVhFfquk/msPJkPcAiA7
lG6azOSUnAcs5uvfaMYKz1h40lACkDibNpPKlWnetgB3ACk8UZZUyDlluqpQ/FgH
1Ldvv1h6KXLcpMMM9OVFR/R4AAABavdzElUAAAQDAEgwRgIhAPnpjbdDgVGKDDmY
l9iyMCBLrci8NT33ibk9VLsOh2d7AiEA8EumYTw7nV5UY15SqXIP41JQtyXObKyX
ZudEe0Kic0YwDQYJKoZIhvcNAQELBQADggEBAEFK424xxPGKV9bxJ+Sgo6PFYftK
GnpkG/JhQBfRoAjBWcd/zJY0BLMhEiDe1GP2EaS2zNxWsiUnlJkPDIStg5z5jCxK
zPrQ0dbXKxjr9oq/ygS82O3gH1qYTeZfomYifDQFzZtmR3QOdLnJJ7yuUDlL3z3+
cTTiwcMCrUkA5IFuvZUHx+fWkwj2ZSuCXL2wMNKb4HTqpBSxWQFPvsH8CaNC5Q+f
Tb1QTojFdk9odLYxYbwyHxMQPJ7uXG4y7bmiYhw3TiO/CJskLuu4EeQ8bRB4K//5
CXOmsMfqMzKVvpT+/+9tCuY1l0qhDttz4vW9g12aRbxer1k9xFsnA6NqItw=
-----END CERTIFICATE-----
